target datalayout = "e-m:e-p270:32:32-p271:32:32-p272:64:64-i64:64-i128:128-f80:128-n8:16:32:64-S128"
target triple = "x86_64-unknown-linux-gnu"

%struct.PCIHostDeviceAddress = type { i32, i32, i32, i32 }

; Function Attrs: nounwind sspstrong uwtable
define internal void @set_pci_host_devaddr(ptr noundef %obj, ptr noundef %v, ptr noundef %name, ptr noundef %opaque, ptr noundef %errp) #0 {
entry:
  %obj.addr = alloca ptr, align 8
  %v.addr = alloca ptr, align 8
  %name.addr = alloca ptr, align 8
  %opaque.addr = alloca ptr, align 8
  %errp.addr = alloca ptr, align 8
  %prop = alloca ptr, align 8
  %addr = alloca ptr, align 8
  %str = alloca ptr, align 8
  %p = alloca ptr, align 8
  %e = alloca ptr, align 8
  %val = alloca i64, align 8
  %dom = alloca i64, align 8
  %bus = alloca i64, align 8
  %slot = alloca i32, align 4
  %func = alloca i32, align 4
  store ptr %obj, ptr %obj.addr, align 8
  store ptr %v, ptr %v.addr, align 8
  store ptr %name, ptr %name.addr, align 8
  store ptr %opaque, ptr %opaque.addr, align 8
  store ptr %errp, ptr %errp.addr, align 8
  %0 = load ptr, ptr %opaque.addr, align 8
  store ptr %0, ptr %prop, align 8
  %1 = load ptr, ptr %obj.addr, align 8
  %2 = load ptr, ptr %prop, align 8
  %call = call ptr @object_field_prop_ptr(ptr noundef %1, ptr noundef %2)
  store ptr %call, ptr %addr, align 8
  store i64 0, ptr %dom, align 8
  store i64 0, ptr %bus, align 8
  store i32 0, ptr %slot, align 4
  store i32 0, ptr %func, align 4
  %3 = load ptr, ptr %v.addr, align 8
  %4 = load ptr, ptr %name.addr, align 8
  %5 = load ptr, ptr %errp.addr, align 8
  %call1 = call zeroext i1 @visit_type_str(ptr noundef %3, ptr noundef %4, ptr noundef %str, ptr noundef %5)
  br i1 %call1, label %if.end, label %if.then

if.then:                                          ; preds = %entry
  br label %return

if.end:                                           ; preds = %entry
  %6 = load ptr, ptr %str, align 8
  store ptr %6, ptr %p, align 8
  %7 = load ptr, ptr %p, align 8
  %call2 = call i64 @strtoul(ptr noundef %7, ptr noundef %e, i32 noundef 16) #7
  store i64 %call2, ptr %val, align 8
  %8 = load ptr, ptr %e, align 8
  %9 = load ptr, ptr %p, align 8
  %cmp = icmp eq ptr %8, %9
  br i1 %cmp, label %if.then5, label %lor.lhs.false

lor.lhs.false:                                    ; preds = %if.end
  %10 = load ptr, ptr %e, align 8
  %11 = load i8, ptr %10, align 1
  %conv = sext i8 %11 to i32
  %cmp3 = icmp ne i32 %conv, 58
  br i1 %cmp3, label %if.then5, label %if.end6

if.then5:                                         ; preds = %lor.lhs.false, %if.end
  br label %inval

if.end6:                                          ; preds = %lor.lhs.false
  %12 = load i64, ptr %val, align 8
  store i64 %12, ptr %bus, align 8
  %13 = load ptr, ptr %e, align 8
  %add.ptr = getelementptr i8, ptr %13, i64 1
  store ptr %add.ptr, ptr %p, align 8
  %14 = load ptr, ptr %p, align 8
  %call7 = call i64 @strtoul(ptr noundef %14, ptr noundef %e, i32 noundef 16) #7
  store i64 %call7, ptr %val, align 8
  %15 = load ptr, ptr %e, align 8
  %16 = load ptr, ptr %p, align 8
  %cmp8 = icmp eq ptr %15, %16
  br i1 %cmp8, label %if.then10, label %if.end11

if.then10:                                        ; preds = %if.end6
  br label %inval

if.end11:                                         ; preds = %if.end6
  %17 = load ptr, ptr %e, align 8
  %18 = load i8, ptr %17, align 1
  %conv12 = sext i8 %18 to i32
  %cmp13 = icmp eq i32 %conv12, 58
  br i1 %cmp13, label %if.then15, label %if.end22

if.then15:                                        ; preds = %if.end11
  %19 = load i64, ptr %bus, align 8
  store i64 %19, ptr %dom, align 8
  %20 = load i64, ptr %val, align 8
  store i64 %20, ptr %bus, align 8
  %21 = load ptr, ptr %e, align 8
  %add.ptr16 = getelementptr i8, ptr %21, i64 1
  store ptr %add.ptr16, ptr %p, align 8
  %22 = load ptr, ptr %p, align 8
  %call17 = call i64 @strtoul(ptr noundef %22, ptr noundef %e, i32 noundef 16) #7
  store i64 %call17, ptr %val, align 8
  %23 = load ptr, ptr %e, align 8
  %24 = load ptr, ptr %p, align 8
  %cmp18 = icmp eq ptr %23, %24
  br i1 %cmp18, label %if.then20, label %if.end21

if.then20:                                        ; preds = %if.then15
  br label %inval

if.end21:                                         ; preds = %if.then15
  br label %if.end22

if.end22:                                         ; preds = %if.end21, %if.end11
  %25 = load i64, ptr %val, align 8
  %conv23 = trunc i64 %25 to i32
  store i32 %conv23, ptr %slot, align 4
  %26 = load ptr, ptr %e, align 8
  %27 = load i8, ptr %26, align 1
  %conv24 = sext i8 %27 to i32
  %cmp25 = icmp ne i32 %conv24, 46
  br i1 %cmp25, label %if.then27, label %if.end28

if.then27:                                        ; preds = %if.end22
  br label %inval

if.end28:                                         ; preds = %if.end22
  %28 = load ptr, ptr %e, align 8
  %add.ptr29 = getelementptr i8, ptr %28, i64 1
  store ptr %add.ptr29, ptr %p, align 8
  %29 = load ptr, ptr %p, align 8
  %call30 = call i64 @strtoul(ptr noundef %29, ptr noundef %e, i32 noundef 10) #7
  store i64 %call30, ptr %val, align 8
  %30 = load ptr, ptr %e, align 8
  %31 = load ptr, ptr %p, align 8
  %cmp31 = icmp eq ptr %30, %31
  br i1 %cmp31, label %if.then33, label %if.end34

if.then33:                                        ; preds = %if.end28
  br label %inval

if.end34:                                         ; preds = %if.end28
  %32 = load i64, ptr %val, align 8
  %conv35 = trunc i64 %32 to i32
  store i32 %conv35, ptr %func, align 4
  %33 = load i64, ptr %dom, align 8
  %cmp36 = icmp ugt i64 %33, 65535
  br i1 %cmp36, label %if.then47, label %lor.lhs.false38

lor.lhs.false38:                                  ; preds = %if.end34
  %34 = load i64, ptr %bus, align 8
  %cmp39 = icmp ugt i64 %34, 255
  br i1 %cmp39, label %if.then47, label %lor.lhs.false41

lor.lhs.false41:                                  ; preds = %lor.lhs.false38
  %35 = load i32, ptr %slot, align 4
  %cmp42 = icmp ugt i32 %35, 31
  br i1 %cmp42, label %if.then47, label %lor.lhs.false44

lor.lhs.false44:                                  ; preds = %lor.lhs.false41
  %36 = load i32, ptr %func, align 4
  %cmp45 = icmp ugt i32 %36, 7
  br i1 %cmp45, label %if.then47, label %if.end48

if.then47:                                        ; preds = %lor.lhs.false44, %lor.lhs.false41, %lor.lhs.false38, %if.end34
  br label %inval

if.end48:                                         ; preds = %lor.lhs.false44
  %37 = load ptr, ptr %e, align 8
  %38 = load i8, ptr %37, align 1
  %tobool = icmp ne i8 %38, 0
  br i1 %tobool, label %if.then49, label %if.end50

if.then49:                                        ; preds = %if.end48
  br label %inval

if.end50:                                         ; preds = %if.end48
  %39 = load i64, ptr %dom, align 8
  %conv51 = trunc i64 %39 to i32
  %40 = load ptr, ptr %addr, align 8
  %domain = getelementptr inbounds %struct.PCIHostDeviceAddress, ptr %40, i32 0, i32 0
  store i32 %conv51, ptr %domain, align 4
  %41 = load i64, ptr %bus, align 8
  %conv52 = trunc i64 %41 to i32
  %42 = load ptr, ptr %addr, align 8
  %bus53 = getelementptr inbounds %struct.PCIHostDeviceAddress, ptr %42, i32 0, i32 1
  store i32 %conv52, ptr %bus53, align 4
  %43 = load i32, ptr %slot, align 4
  %44 = load ptr, ptr %addr, align 8
  %slot54 = getelementptr inbounds %struct.PCIHostDeviceAddress, ptr %44, i32 0, i32 2
  store i32 %43, ptr %slot54, align 4
  %45 = load i32, ptr %func, align 4
  %46 = load ptr, ptr %addr, align 8
  %function = getelementptr inbounds %struct.PCIHostDeviceAddress, ptr %46, i32 0, i32 3
  store i32 %45, ptr %function, align 4
  %47 = load ptr, ptr %str, align 8
  call void @g_free(ptr noundef %47)
  br label %return

inval:                                            ; preds = %if.then49, %if.then47, %if.then33, %if.then27, %if.then20, %if.then10, %if.then5
  %48 = load ptr, ptr %errp.addr, align 8
  %49 = load ptr, ptr %obj.addr, align 8
  %50 = load ptr, ptr %name.addr, align 8
  %51 = load ptr, ptr %str, align 8
  call void @error_set_from_qdev_prop_error(ptr noundef %48, i32 noundef 22, ptr noundef %49, ptr noundef %50, ptr noundef %51)
  %52 = load ptr, ptr %str, align 8
  call void @g_free(ptr noundef %52)
  br label %return

return:                                           ; preds = %inval, %if.end50, %if.then
  ret void
}