; Function Attrs: nounwind sspstrong uwtable
define internal void @set_pci_host_devaddr(ptr noundef %obj, ptr noundef %v, ptr noundef %name, ptr noundef %opaque, ptr noundef %errp) #0 {
entry:
  %str = alloca ptr, align 8
  %e = alloca ptr, align 8
  %call = tail call ptr @object_field_prop_ptr(ptr noundef %obj, ptr noundef %opaque) #10
  %call1 = call zeroext i1 @visit_type_str(ptr noundef %v, ptr noundef %name, ptr noundef nonnull %str, ptr noundef %errp) #10
  br i1 %call1, label %if.end, label %return

if.end:                                           ; preds = %entry
  %0 = load ptr, ptr %str, align 8
  %call2 = call i64 @strtoul(ptr noundef %0, ptr noundef nonnull %e, i32 noundef 16) #10
  %1 = load ptr, ptr %e, align 8
  %cmp = icmp eq ptr %1, %0
  br i1 %cmp, label %inval, label %lor.lhs.false

lor.lhs.false:                                    ; preds = %if.end
  %2 = load i8, ptr %1, align 1
  %cmp3.not = icmp eq i8 %2, 58
  br i1 %cmp3.not, label %if.end6, label %inval

if.end6:                                          ; preds = %lor.lhs.false
  %add.ptr = getelementptr i8, ptr %1, i64 1
  %call7 = call i64 @strtoul(ptr noundef %add.ptr, ptr noundef nonnull %e, i32 noundef 16) #10
  %3 = load ptr, ptr %e, align 8
  %cmp8 = icmp eq ptr %3, %add.ptr
  br i1 %cmp8, label %inval, label %if.end11

if.end11:                                         ; preds = %if.end6
  %4 = load i8, ptr %3, align 1
  %cmp13 = icmp eq i8 %4, 58
  br i1 %cmp13, label %if.then15, label %if.end22

if.then15:                                        ; preds = %if.end11
  %add.ptr16 = getelementptr i8, ptr %3, i64 1
  %call17 = call i64 @strtoul(ptr noundef %add.ptr16, ptr noundef nonnull %e, i32 noundef 16) #10
  %5 = load ptr, ptr %e, align 8
  %cmp18 = icmp eq ptr %5, %add.ptr16
  br i1 %cmp18, label %inval, label %if.then15.if.end22_crit_edge

if.then15.if.end22_crit_edge:                     ; preds = %if.then15
  %.pre = load i8, ptr %5, align 1
  br label %if.end22

if.end22:                                         ; preds = %if.then15.if.end22_crit_edge, %if.end11
  %6 = phi i8 [ %.pre, %if.then15.if.end22_crit_edge ], [ %4, %if.end11 ]
  %7 = phi ptr [ %5, %if.then15.if.end22_crit_edge ], [ %3, %if.end11 ]
  %val.0 = phi i64 [ %call17, %if.then15.if.end22_crit_edge ], [ %call7, %if.end11 ]
  %dom.0 = phi i64 [ %call2, %if.then15.if.end22_crit_edge ], [ 0, %if.end11 ]
  %bus.0 = phi i64 [ %call7, %if.then15.if.end22_crit_edge ], [ %call2, %if.end11 ]
  %conv23 = trunc i64 %val.0 to i32
  %cmp25.not = icmp eq i8 %6, 46
  br i1 %cmp25.not, label %if.end28, label %inval

if.end28:                                         ; preds = %if.end22
  %add.ptr29 = getelementptr i8, ptr %7, i64 1
  %call30 = call i64 @strtoul(ptr noundef %add.ptr29, ptr noundef nonnull %e, i32 noundef 10) #10
  %8 = load ptr, ptr %e, align 8
  %cmp31 = icmp eq ptr %8, %add.ptr29
  br i1 %cmp31, label %inval, label %if.end34

if.end34:                                         ; preds = %if.end28
  %conv35 = trunc i64 %call30 to i32
  %cmp36 = icmp ugt i64 %dom.0, 65535
  %cmp39 = icmp ugt i64 %bus.0, 255
  %or.cond = select i1 %cmp36, i1 true, i1 %cmp39
  %cmp42 = icmp ugt i32 %conv23, 31
  %or.cond1 = select i1 %or.cond, i1 true, i1 %cmp42
  %cmp45 = icmp ugt i32 %conv35, 7
  %or.cond2 = select i1 %or.cond1, i1 true, i1 %cmp45
  br i1 %or.cond2, label %inval, label %if.end48

if.end48:                                         ; preds = %if.end34
  %9 = load i8, ptr %8, align 1
  %tobool.not = icmp eq i8 %9, 0
  br i1 %tobool.not, label %if.end50, label %inval

if.end50:                                         ; preds = %if.end48
  %conv51 = trunc nuw nsw i64 %dom.0 to i32
  store i32 %conv51, ptr %call, align 4
  %conv52 = trunc nuw nsw i64 %bus.0 to i32
  %bus53 = getelementptr inbounds nuw i8, ptr %call, i64 4
  store i32 %conv52, ptr %bus53, align 4
  %slot54 = getelementptr inbounds nuw i8, ptr %call, i64 8
  store i32 %conv23, ptr %slot54, align 4
  %function = getelementptr inbounds nuw i8, ptr %call, i64 12
  store i32 %conv35, ptr %function, align 4
  br label %return.sink.split

inval:                                            ; preds = %if.end48, %if.end34, %if.end28, %if.end22, %if.then15, %if.end6, %if.end, %lor.lhs.false
  %10 = load ptr, ptr %str, align 8
  call void @error_set_from_qdev_prop_error(ptr noundef %errp, i32 noundef 22, ptr noundef %obj, ptr noundef %name, ptr noundef %10) #10
  br label %return.sink.split

return.sink.split:                                ; preds = %if.end50, %inval
  %11 = load ptr, ptr %str, align 8
  call void @g_free(ptr noundef %11) #10
  br label %return

return:                                           ; preds = %return.sink.split, %entry
  ret void
}